target datalayout = "e-m:e-p270:32:32-p271:32:32-p272:64:64-i64:64-i128:128-f80:128-n8:16:32:64-S128"
target triple = "x86_64-pc-linux-gnu"

@notmoved = global i32 0, align 4
@.str.5 = private unnamed_addr constant [26 x i8] c"Can't move file %s to %s\0A\00", align 1
@.str.6 = private unnamed_addr constant [34 x i8] c"Can't unlink '%s' after copy: %s\0A\00", align 1
@.str.7 = private unnamed_addr constant [19 x i8] c"%s: moved to '%s'\0A\00", align 1
@.str.10 = private unnamed_addr constant [37 x i8] c"traverse_rename: Invalid arguments!\0A\00", align 1
@.str.11 = private unnamed_addr constant [71 x i8] c"traverse_rename: Failed to open file descriptor for source directory!\0A\00", align 1
@.str.12 = private unnamed_addr constant [70 x i8] c"traverse_rename: Failed to get basename of source path:%s\0A\09Error: %d\0A\00", align 1
@.str.13 = private unnamed_addr constant [56 x i8] c"traverse_rename: Failed to rename: %s\0A\09to: %s\0AError:%s\0A\00", align 1

; Function Attrs: nounwind uwtable
define internal i32 @traverse_rename(ptr noundef %0, ptr noundef %1) #0 {
  %3 = alloca ptr, align 8
  %4 = alloca ptr, align 8
  %5 = alloca i32, align 4
  %6 = alloca i32, align 4
  %7 = alloca i32, align 4
  %8 = alloca ptr, align 8
  store ptr %0, ptr %3, align 8
  store ptr %1, ptr %4, align 8
  store i32 -1, ptr %5, align 4
  store i32 -1, ptr %7, align 4
  store ptr null, ptr %8, align 8
  %9 = load ptr, ptr %3, align 8
  %10 = icmp eq ptr null, %9
  br i1 %10, label %14, label %11

11:                                               ; preds = %2
  %12 = load ptr, ptr %4, align 8
  %13 = icmp eq ptr null, %12
  br i1 %13, label %14, label %16

14:                                               ; preds = %11, %2
  %15 = call i32 (i32, ptr, ...) @logg(i32 noundef 0, ptr noundef @.str.10)
  br label %47

16:                                               ; preds = %11
  %17 = load ptr, ptr %3, align 8
  %18 = call i32 @traverse_to(ptr noundef %17, i1 noundef zeroext true, ptr noundef %7)
  %19 = icmp ne i32 0, %18
  br i1 %19, label %20, label %22

20:                                               ; preds = %16
  %21 = call i32 (i32, ptr, ...) @logg(i32 noundef 0, ptr noundef @.str.11)
  br label %47

22:                                               ; preds = %16
  %23 = load ptr, ptr %3, align 8
  %24 = load ptr, ptr %3, align 8
  %25 = call i64 @strlen(ptr noundef %24) #6
  %26 = call i32 @cli_basename(ptr noundef %23, i64 noundef %25, ptr noundef %8)
  store i32 %26, ptr %6, align 4
  %27 = load i32, ptr %6, align 4
  %28 = icmp ne i32 0, %27
  br i1 %28, label %29, label %33

29:                                               ; preds = %22
  %30 = load ptr, ptr %3, align 8
  %31 = load i32, ptr %6, align 4
  %32 = call i32 (i32, ptr, ...) @logg(i32 noundef 0, ptr noundef @.str.12, ptr noundef %30, i32 noundef %31)
  br label %47

33:                                               ; preds = %22
  %34 = load i32, ptr %7, align 4
  %35 = load ptr, ptr %8, align 8
  %36 = load ptr, ptr %4, align 8
  %37 = call i32 @renameat(i32 noundef %34, ptr noundef %35, i32 noundef -1, ptr noundef %36) #7
  %38 = icmp ne i32 0, %37
  br i1 %38, label %39, label %46

39:                                               ; preds = %33
  %40 = load ptr, ptr %3, align 8
  %41 = load ptr, ptr %4, align 8
  %42 = call ptr @__errno_location() #8
  %43 = load i32, ptr %42, align 4
  %44 = call ptr @strerror(i32 noundef %43) #7
  %45 = call i32 (i32, ptr, ...) @logg(i32 noundef 0, ptr noundef @.str.13, ptr noundef %40, ptr noundef %41, ptr noundef %44)
  br label %47

46:                                               ; preds = %33
  store i32 0, ptr %5, align 4
  br label %47

47:                                               ; preds = %46, %39, %29, %20, %14
  %48 = load ptr, ptr %8, align 8
  %49 = icmp ne ptr null, %48
  br i1 %49, label %50, label %52

50:                                               ; preds = %47
  %51 = load ptr, ptr %8, align 8
  call void @free(ptr noundef %51) #7
  br label %52

52:                                               ; preds = %50, %47
  %53 = load i32, ptr %7, align 4
  %54 = icmp ne i32 -1, %53
  br i1 %54, label %55, label %58

55:                                               ; preds = %52
  %56 = load i32, ptr %7, align 4
  %57 = call i32 @close(i32 noundef %56)
  br label %58

58:                                               ; preds = %55, %52
  %59 = load i32, ptr %5, align 4
  ret i32 %59
}

; Function Attrs: nounwind uwtable
define internal void @action_move(ptr noundef %0) #0 {
  %2 = alloca ptr, align 8
  %3 = alloca ptr, align 8
  %4 = alloca ptr, align 8
  %5 = alloca i32, align 4
  %6 = alloca i32, align 4
  store ptr %0, ptr %2, align 8
  store ptr null, ptr %3, align 8
  store ptr null, ptr %4, align 8
  store i32 -1, ptr %5, align 4
  store i32 0, ptr %6, align 4
  %7 = load ptr, ptr %2, align 8
  %8 = icmp eq ptr null, %7
  br i1 %8, label %9, label %10

9:                                                ; preds = %1
  br label %57

10:                                               ; preds = %1
  %11 = load ptr, ptr %2, align 8
  %12 = call i32 @getdest(ptr noundef %11, ptr noundef %3)
  store i32 %12, ptr %5, align 4
  %13 = load i32, ptr %5, align 4
  %14 = icmp slt i32 %13, 0
  br i1 %14, label %26, label %15

15:                                               ; preds = %10
  %16 = load ptr, ptr %2, align 8
  %17 = load ptr, ptr %3, align 8
  %18 = call i32 @traverse_rename(ptr noundef %16, ptr noundef %17)
  %19 = icmp ne i32 0, %18
  br i1 %19, label %20, label %38

20:                                               ; preds = %15
  store i32 1, ptr %6, align 4
  br i1 true, label %21, label %38

21:                                               ; preds = %20
  %22 = load ptr, ptr %2, align 8
  %23 = load ptr, ptr %3, align 8
  %24 = call i32 @filecopy(ptr noundef %22, ptr noundef %23)
  %25 = icmp ne i32 %24, 0
  br i1 %25, label %26, label %38

26:                                               ; preds = %21, %10
  %27 = load ptr, ptr %2, align 8
  %28 = load ptr, ptr %3, align 8
  %29 = call i32 (i32, ptr, ...) @logg(i32 noundef 5, ptr noundef @.str.5, ptr noundef %27, ptr noundef %28)
  %30 = load i32, ptr @notmoved, align 4
  %31 = add i32 %30, 1
  store i32 %31, ptr @notmoved, align 4
  %32 = load ptr, ptr %3, align 8
  %33 = icmp ne ptr %32, null
  br i1 %33, label %34, label %37

34:                                               ; preds = %26
  %35 = load ptr, ptr %3, align 8
  %36 = call i32 @traverse_unlink(ptr noundef %35)
  br label %37

37:                                               ; preds = %34, %26
  br label %56

38:                                               ; preds = %21, %20, %15
  %39 = load i32, ptr %6, align 4
  %40 = icmp ne i32 %39, 0
  br i1 %40, label %41, label %51

41:                                               ; preds = %38
  %42 = load ptr, ptr %2, align 8
  %43 = call i32 @traverse_unlink(ptr noundef %42)
  %44 = icmp ne i32 0, %43
  br i1 %44, label %45, label %51

45:                                               ; preds = %41
  %46 = load ptr, ptr %2, align 8
  %47 = call ptr @__errno_location() #8
  %48 = load i32, ptr %47, align 4
  %49 = call ptr @strerror(i32 noundef %48) #7
  %50 = call i32 (i32, ptr, ...) @logg(i32 noundef 5, ptr noundef @.str.6, ptr noundef %46, ptr noundef %49)
  br label %55

51:                                               ; preds = %41, %38
  %52 = load ptr, ptr %2, align 8
  %53 = load ptr, ptr %3, align 8
  %54 = call i32 (i32, ptr, ...) @logg(i32 noundef 0, ptr noundef @.str.7, ptr noundef %52, ptr noundef %53)
  br label %55

55:                                               ; preds = %51, %45
  br label %56

56:                                               ; preds = %55, %37
  br label %57

57:                                               ; preds = %56, %9
  %58 = load ptr, ptr %4, align 8
  %59 = icmp ne ptr null, %58
  br i1 %59, label %60, label %62

60:                                               ; preds = %57
  %61 = load ptr, ptr %4, align 8
  call void @free(ptr noundef %61) #7
  br label %62

62:                                               ; preds = %60, %57
  %63 = load i32, ptr %5, align 4
  %64 = icmp sge i32 %63, 0
  br i1 %64, label %65, label %68

65:                                               ; preds = %62
  %66 = load i32, ptr %5, align 4
  %67 = call i32 @close(i32 noundef %66)
  br label %68

68:                                               ; preds = %65, %62
  %69 = load ptr, ptr %3, align 8
  %70 = icmp ne ptr null, %69
  br i1 %70, label %71, label %73

71:                                               ; preds = %68
  %72 = load ptr, ptr %3, align 8
  call void @free(ptr noundef %72) #7
  br label %73

73:                                               ; preds = %71, %68
  ret void
}