; Function Attrs: nounwind uwtable
define internal void @action_move(ptr noundef %0) #0 {
  %2 = alloca i32, align 4
  %3 = alloca ptr, align 8
  %4 = alloca ptr, align 8
  store ptr null, ptr %4, align 8
  %5 = icmp eq ptr %0, null
  br i1 %5, label %.thread29, label %6

6:                                                ; preds = %1
  %7 = call fastcc i32 @getdest(ptr noundef nonnull %0, ptr noundef nonnull %4), !range !4
  %8 = icmp slt i32 %7, 0
  %.pre = load ptr, ptr %4, align 8
  br i1 %8, label %37, label %9

9:                                                ; preds = %6
  call void @llvm.lifetime.start.p0(i64 4, ptr nonnull %2)
  call void @llvm.lifetime.start.p0(i64 8, ptr nonnull %3)
  store i32 -1, ptr %2, align 4
  store ptr null, ptr %3, align 8
  %10 = icmp eq ptr %.pre, null
  br i1 %10, label %traverse_rename.exit.thread, label %12

traverse_rename.exit.thread:                      ; preds = %9
  %11 = tail call i32 (i32, ptr, ...) @logg(i32 noundef 0, ptr noundef nonnull @.str.10) #11
  call void @llvm.lifetime.end.p0(i64 4, ptr nonnull %2)
  call void @llvm.lifetime.end.p0(i64 8, ptr nonnull %3)
  br label %35

12:                                               ; preds = %9
  %13 = call fastcc i32 @traverse_to(ptr noundef nonnull %0, ptr noundef nonnull %2)
  %.not.i = icmp eq i32 %13, 0
  br i1 %.not.i, label %16, label %14

14:                                               ; preds = %12
  %15 = call i32 (i32, ptr, ...) @logg(i32 noundef 0, ptr noundef nonnull @.str.11) #11
  br label %30

16:                                               ; preds = %12
  %17 = call i64 @strlen(ptr noundef nonnull dereferenceable(1) %0) #12
  %18 = call i32 @cli_basename(ptr noundef nonnull %0, i64 noundef %17, ptr noundef nonnull %3) #11
  %.not17.i = icmp eq i32 %18, 0
  br i1 %.not17.i, label %21, label %19

19:                                               ; preds = %16
  %20 = call i32 (i32, ptr, ...) @logg(i32 noundef 0, ptr noundef nonnull @.str.12, ptr noundef nonnull %0, i32 noundef %18) #11
  br label %30

21:                                               ; preds = %16
  %22 = load i32, ptr %2, align 4
  %23 = load ptr, ptr %3, align 8
  %24 = call i32 @renameat(i32 noundef %22, ptr noundef %23, i32 noundef -1, ptr noundef nonnull %.pre) #11
  %.not18.i = icmp eq i32 %24, 0
  br i1 %.not18.i, label %30, label %25

25:                                               ; preds = %21
  %26 = tail call ptr @__errno_location() #13
  %27 = load i32, ptr %26, align 4
  %28 = call ptr @strerror(i32 noundef %27) #11
  %29 = call i32 (i32, ptr, ...) @logg(i32 noundef 0, ptr noundef nonnull @.str.13, ptr noundef nonnull %0, ptr noundef nonnull %.pre, ptr noundef %28) #11
  br label %30

30:                                               ; preds = %25, %21, %19, %14
  %.not = phi i1 [ true, %21 ], [ false, %25 ], [ false, %19 ], [ false, %14 ]
  %.pr.i = load ptr, ptr %3, align 8
  %.not19.i = icmp eq ptr %.pr.i, null
  br i1 %.not19.i, label %32, label %31

31:                                               ; preds = %30
  call void @free(ptr noundef nonnull %.pr.i) #11
  br label %32

32:                                               ; preds = %31, %30
  %.pr25.i = load i32, ptr %2, align 4
  %.not20.i = icmp eq i32 %.pr25.i, -1
  br i1 %.not20.i, label %traverse_rename.exit, label %33

33:                                               ; preds = %32
  %34 = call i32 @close(i32 noundef %.pr25.i) #11
  br label %traverse_rename.exit

traverse_rename.exit:                             ; preds = %32, %33
  call void @llvm.lifetime.end.p0(i64 4, ptr nonnull %2)
  call void @llvm.lifetime.end.p0(i64 8, ptr nonnull %3)
  br i1 %.not, label %.critedge, label %35

35:                                               ; preds = %traverse_rename.exit.thread, %traverse_rename.exit
  %36 = call i32 @filecopy(ptr noundef nonnull %0, ptr noundef %.pre) #11
  %.not18 = icmp eq i32 %36, 0
  br i1 %.not18, label %43, label %37

37:                                               ; preds = %35, %6
  %38 = call i32 (i32, ptr, ...) @logg(i32 noundef 5, ptr noundef nonnull @.str.5, ptr noundef nonnull %0, ptr noundef %.pre) #11
  %39 = load i32, ptr @notmoved, align 4
  %40 = add i32 %39, 1
  store i32 %40, ptr @notmoved, align 4
  %.not21 = icmp eq ptr %.pre, null
  br i1 %.not21, label %51, label %41

41:                                               ; preds = %37
  %42 = call fastcc i32 @traverse_unlink(ptr noundef nonnull %.pre), !range !5
  br label %51

43:                                               ; preds = %35
  %44 = call fastcc i32 @traverse_unlink(ptr noundef nonnull %0), !range !5
  %.not20 = icmp eq i32 %44, 0
  br i1 %.not20, label %.critedge, label %45

45:                                               ; preds = %43
  %46 = tail call ptr @__errno_location() #13
  %47 = load i32, ptr %46, align 4
  %48 = call ptr @strerror(i32 noundef %47) #11
  %49 = call i32 (i32, ptr, ...) @logg(i32 noundef 5, ptr noundef nonnull @.str.6, ptr noundef nonnull %0, ptr noundef %48) #11
  br label %.thread

.critedge:                                        ; preds = %traverse_rename.exit, %43
  %50 = call i32 (i32, ptr, ...) @logg(i32 noundef 0, ptr noundef nonnull @.str.7, ptr noundef nonnull %0, ptr noundef %.pre) #11
  br label %.thread

51:                                               ; preds = %37, %41
  %52 = icmp sgt i32 %7, -1
  br i1 %52, label %.thread, label %54

.thread:                                          ; preds = %.critedge, %45, %51
  %53 = call i32 @close(i32 noundef %7) #11
  br label %54

54:                                               ; preds = %.thread, %51
  %.not22 = icmp eq ptr %.pre, null
  br i1 %.not22, label %.thread29, label %55

55:                                               ; preds = %54
  call void @free(ptr noundef nonnull %.pre) #11
  br label %.thread29

.thread29:                                        ; preds = %1, %55, %54
  ret void
}